target datalayout = "e-m:e-p270:32:32-p271:32:32-p272:64:64-i64:64-i128:128-f80:128-n8:16:32:64-S128"
target triple = "x86_64-pc-linux-gnu"

%struct._FUserData = type { ptr, ptr, ptr, ptr, ptr, ptr, ptr, ptr, ptr }

; Function Attrs: nounwind uwtable
define i32 @ipsetproblemscaling_(ptr noundef %0, ptr noundef %1, ptr noundef %2, ptr noundef %3) #0 {
  %5 = alloca ptr, align 8
  %6 = alloca ptr, align 8
  %7 = alloca ptr, align 8
  %8 = alloca ptr, align 8
  %9 = alloca ptr, align 8
  store ptr %0, ptr %5, align 8, !tbaa !32
  store ptr %1, ptr %6, align 8, !tbaa !8
  store ptr %2, ptr %7, align 8, !tbaa !8
  store ptr %3, ptr %8, align 8, !tbaa !8
  call void @llvm.lifetime.start.p0(i64 8, ptr %9) #6
  %10 = load ptr, ptr %5, align 8, !tbaa !32
  %11 = load ptr, ptr %10, align 8, !tbaa !10
  store ptr %11, ptr %9, align 8, !tbaa !13
  %12 = load ptr, ptr %9, align 8, !tbaa !13
  %13 = getelementptr inbounds nuw %struct._FUserData, ptr %12, i32 0, i32 8
  %14 = load ptr, ptr %13, align 8, !tbaa !15
  %15 = load ptr, ptr %6, align 8, !tbaa !8
  %16 = load double, ptr %15, align 8, !tbaa !30
  %17 = load ptr, ptr %7, align 8, !tbaa !8
  %18 = load ptr, ptr %8, align 8, !tbaa !8
  %19 = call zeroext i1 @SetIpoptProblemScaling(ptr noundef %14, double noundef %16, ptr noundef %17, ptr noundef %18)
  %20 = select i1 %19, i32 0, i32 1
  call void @llvm.lifetime.end.p0(i64 8, ptr %9) #6
  ret i32 %20
}