; Function Attrs: nounwind uwtable
define range(i32 0, 2) i32 @ipsetproblemscaling_(ptr noundef readonly captures(none) %0, ptr noundef readonly captures(none) %1, ptr noundef %2, ptr noundef %3) local_unnamed_addr #0 {
  %5 = load ptr, ptr %0, align 8, !tbaa !23
  %6 = getelementptr inbounds nuw i8, ptr %5, i64 64
  %7 = load ptr, ptr %6, align 8, !tbaa !7
  %8 = load double, ptr %1, align 8, !tbaa !21
  %9 = tail call zeroext i1 @SetIpoptProblemScaling(ptr noundef %7, double noundef %8, ptr noundef %2, ptr noundef %3) #8
  %not. = xor i1 %9, true
  %10 = zext i1 %not. to i32
  ret i32 %10
}